target datalayout = "e-m:e-p270:32:32-p271:32:32-p272:64:64-i64:64-i128:128-f80:128-n8:16:32:64-S128"
target triple = "x86_64-pc-linux-gnu"

%class.OopHandle = type { ptr }
%class.OopClosure = type { ptr }
%class.Monitor = type { %class.Mutex }
%class.Mutex = type { ptr, %class.PlatformMonitor, ptr }
%class.PlatformMonitor = type { %class.PlatformMutex, %union.pthread_cond_t }
%class.PlatformMutex = type { %union.pthread_mutex_t }
%union.pthread_mutex_t = type { %struct.__pthread_mutex_s }
%struct.__pthread_mutex_s = type { i32, i32, i32, i32, i32, i16, i16, %struct.__pthread_internal_list }
%struct.__pthread_internal_list = type { ptr, ptr }
%union.pthread_cond_t = type { %struct.__pthread_cond_s }
%struct.__pthread_cond_s = type { %union.__atomic_wide_counter, %union.__atomic_wide_counter, [2 x i32], [2 x i32], i32, i32, [2 x i32] }
%union.__atomic_wide_counter = type { i64 }
%class.StackRefCollector = type { ptr, ptr, ptr, ptr, i64, i64, i8, i32, ptr }
%class.JNILocalRootsClosure = type <{ %class.OopClosure, i64, i64, i32, [4 x i8], ptr, i8, [7 x i8] }>
%class.JavaThread = type { %class.Thread, i8, %class.OopHandle, %class.OopHandle, %class.OopHandle, %class.OopHandle, %class.JavaFrameAnchor, ptr, %struct.JNIEnv_, ptr, ptr, ptr, ptr, ptr, ptr, ptr, ptr, %class.MemRegion, ptr, i8, ptr, ptr, ptr, i32, i32, %"struct.SafepointMechanism::ThreadData", ptr, ptr, i32, i32, i8, i8, i8, i8, i8, i8, i8, i32, i8, i32, i8, i8, i64, %union.anon, ptr, ptr, i64, i64, ptr, ptr, %class.StackOverflow, ptr, ptr, ptr, i32, i32, ptr, i32, i32, i32, ptr, ptr, i32, i64, i64, %class.StackWatermarks, %class.HandshakeState, ptr, i32, ptr, i32, i32, ptr, %class.Parker, ptr, ptr, %class.LockStack }
%class.Thread = type { %class.ThreadShadow.base, i64, [43 x i64], ptr, ptr, i32, ptr, i64, i64, %class.ThreadLocalAllocBuffer, i64, %class.ThreadHeapSampler, %class.ThreadStatisticalInfo, %class.JfrThreadLocal, ptr, ptr, ptr, ptr, ptr, ptr, i64, i32, i32, ptr, i32, i32, i32, i32, i8, ptr }
%class.ThreadShadow.base = type <{ ptr, ptr, ptr, i32 }>
%class.ThreadLocalAllocBuffer = type <{ ptr, ptr, ptr, ptr, ptr, i64, i64, i64, i64, i32, i32, i32, i32, i64, %class.AdaptiveWeightedAverage, [4 x i8] }>
%class.AdaptiveWeightedAverage = type { float, i32, i32, i8, float }
%class.ThreadHeapSampler = type { i64 }
%class.ThreadStatisticalInfo = type { i64, i64 }
%class.JfrThreadLocal = type <{ ptr, ptr, ptr, ptr, ptr, ptr, ptr, ptr, ptr, ptr, %class.RefCountHandle, i64, i64, i64, i64, i64, i64, i64, i64, i64, i64, i64, i32, i32, i32, i16, i8, i8, i8, i8, i8, [5 x i8] }>
%class.RefCountHandle = type { ptr }
%class.JavaFrameAnchor = type { ptr, ptr, ptr }
%struct.JNIEnv_ = type { ptr }
%class.MemRegion = type { ptr, i64 }
%"struct.SafepointMechanism::ThreadData" = type { i64, i64 }
%union.anon = type { ptr }
%class.StackOverflow = type { i32, ptr, ptr, ptr, ptr, ptr, ptr }
%class.StackWatermarks = type { ptr }
%class.HandshakeState = type <{ ptr, %class.FilterQueue, %class.Monitor, ptr, i8, i8, i8, [5 x i8] }>
%class.FilterQueue = type { ptr }
%class.Parker = type { %class.PlatformParker }
%class.PlatformParker = type { i32, i32, [1 x %union.pthread_mutex_t], [2 x %union.pthread_cond_t] }
%class.LockStack = type { i32, i64, [8 x ptr] }
%class.JavaCallWrapper = type { ptr, ptr, ptr, ptr, %class.JavaFrameAnchor, ptr }
%class.frame = type { %union.anon.10, ptr, ptr, ptr, i32, i8, %union.anon.11, %union.anon.12 }
%union.anon.10 = type { ptr }
%union.anon.11 = type { ptr }
%union.anon.12 = type { ptr }

; Function Attrs: mustprogress nounwind uwtable
define linkonce_odr hidden void @_ZNK5frame15assert_absoluteEv(ptr noundef nonnull align 8 dereferenceable(56) %0) #1 comdat align 2 {
  %2 = alloca ptr, align 8
  store ptr %0, ptr %2, align 8
  ret void
}

; Function Attrs: mustprogress nounwind uwtable
define linkonce_odr hidden noundef ptr @_ZNK5frame2fpEv(ptr noundef nonnull align 8 dereferenceable(56) %0) #1 comdat align 2 {
  %2 = alloca ptr, align 8
  store ptr %0, ptr %2, align 8
  %3 = load ptr, ptr %2, align 8
  call void @_ZNK5frame15assert_absoluteEv(ptr noundef nonnull align 8 dereferenceable(56) %3)
  %4 = getelementptr inbounds %class.frame, ptr %3, i32 0, i32 6
  %5 = load ptr, ptr %4, align 8
  ret ptr %5
}

; Function Attrs: mustprogress nounwind uwtable
define linkonce_odr hidden noundef ptr @_ZNK5frame7addr_atEi(ptr noundef nonnull align 8 dereferenceable(56) %0, i32 noundef %1) #1 comdat align 2 {
  %3 = alloca ptr, align 8
  %4 = alloca i32, align 4
  store ptr %0, ptr %3, align 8
  store i32 %1, ptr %4, align 4
  %5 = load ptr, ptr %3, align 8
  %6 = call noundef ptr @_ZNK5frame2fpEv(ptr noundef nonnull align 8 dereferenceable(56) %5)
  %7 = load i32, ptr %4, align 4
  %8 = sext i32 %7 to i64
  %9 = getelementptr inbounds i64, ptr %6, i64 %8
  ret ptr %9
}

; Function Attrs: mustprogress nounwind uwtable
define linkonce_odr hidden noundef ptr @_ZNK5frame29entry_frame_call_wrapper_addrEv(ptr noundef nonnull align 8 dereferenceable(56) %0) #1 comdat align 2 {
  %2 = alloca ptr, align 8
  store ptr %0, ptr %2, align 8
  %3 = load ptr, ptr %2, align 8
  %4 = call noundef ptr @_ZNK5frame7addr_atEi(ptr noundef nonnull align 8 dereferenceable(56) %3, i32 noundef -6)
  ret ptr %4
}

; Function Attrs: mustprogress nounwind uwtable
define linkonce_odr hidden noundef ptr @_ZNK15JavaCallWrapper7handlesEv(ptr noundef nonnull align 8 dereferenceable(64) %0) #1 comdat align 2 {
  %2 = alloca ptr, align 8
  store ptr %0, ptr %2, align 8
  %3 = load ptr, ptr %2, align 8
  %4 = getelementptr inbounds %class.JavaCallWrapper, ptr %3, i32 0, i32 1
  %5 = load ptr, ptr %4, align 8
  ret ptr %5
}

; Function Attrs: mustprogress nounwind uwtable
define linkonce_odr hidden noundef ptr @_ZNK5frame24entry_frame_call_wrapperEv(ptr noundef nonnull align 8 dereferenceable(56) %0) #1 comdat align 2 {
  %2 = alloca ptr, align 8
  store ptr %0, ptr %2, align 8
  %3 = load ptr, ptr %2, align 8
  %4 = call noundef ptr @_ZNK5frame29entry_frame_call_wrapper_addrEv(ptr noundef nonnull align 8 dereferenceable(56) %3)
  %5 = load ptr, ptr %4, align 8
  ret ptr %5
}

; Function Attrs: mustprogress nounwind uwtable
define linkonce_odr hidden noundef zeroext i1 @_ZN20JNILocalRootsClosure7stoppedEv(ptr noundef nonnull align 8 dereferenceable(41) %0) #1 comdat align 2 {
  %2 = alloca ptr, align 8
  store ptr %0, ptr %2, align 8
  %3 = load ptr, ptr %2, align 8
  %4 = getelementptr inbounds %class.JNILocalRootsClosure, ptr %3, i32 0, i32 6
  %5 = load i8, ptr %4, align 8
  %6 = trunc i8 %5 to i1
  %7 = xor i1 %6, true
  ret i1 %7
}

; Function Attrs: mustprogress nounwind uwtable
define linkonce_odr hidden noundef ptr @_ZNK10JavaThread14active_handlesEv(ptr noundef nonnull align 8 dereferenceable(1800) %0) #1 comdat align 2 {
  %2 = alloca ptr, align 8
  store ptr %0, ptr %2, align 8
  %3 = load ptr, ptr %2, align 8
  %4 = getelementptr inbounds %class.JavaThread, ptr %3, i32 0, i32 21
  %5 = load ptr, ptr %4, align 8
  ret ptr %5
}

; Function Attrs: mustprogress nounwind uwtable
define linkonce_odr hidden void @_ZN20JNILocalRootsClosure11set_contextElliP10_jmethodID(ptr noundef nonnull align 8 dereferenceable(41) %0, i64 noundef %1, i64 noundef %2, i32 noundef %3, ptr noundef %4) #1 comdat align 2 {
  %6 = alloca ptr, align 8
  %7 = alloca i64, align 8
  %8 = alloca i64, align 8
  %9 = alloca i32, align 4
  %10 = alloca ptr, align 8
  store ptr %0, ptr %6, align 8
  store i64 %1, ptr %7, align 8
  store i64 %2, ptr %8, align 8
  store i32 %3, ptr %9, align 4
  store ptr %4, ptr %10, align 8
  %11 = load ptr, ptr %6, align 8
  %12 = load i64, ptr %7, align 8
  %13 = getelementptr inbounds %class.JNILocalRootsClosure, ptr %11, i32 0, i32 1
  store i64 %12, ptr %13, align 8
  %14 = load i64, ptr %8, align 8
  %15 = getelementptr inbounds %class.JNILocalRootsClosure, ptr %11, i32 0, i32 2
  store i64 %14, ptr %15, align 8
  %16 = load i32, ptr %9, align 4
  %17 = getelementptr inbounds %class.JNILocalRootsClosure, ptr %11, i32 0, i32 3
  store i32 %16, ptr %17, align 8
  %18 = load ptr, ptr %10, align 8
  %19 = getelementptr inbounds %class.JNILocalRootsClosure, ptr %11, i32 0, i32 5
  store ptr %18, ptr %19, align 8
  %20 = getelementptr inbounds %class.JNILocalRootsClosure, ptr %11, i32 0, i32 6
  store i8 1, ptr %20, align 8
  ret void
}

; Function Attrs: mustprogress nounwind uwtable
define hidden noundef zeroext i1 @_ZN17StackRefCollector24report_native_stack_refsEP10_jmethodID(ptr noundef nonnull align 8 dereferenceable(64) %0, ptr noundef %1) #1 align 2 {
  %3 = alloca i1, align 1
  %4 = alloca ptr, align 8
  %5 = alloca ptr, align 8
  store ptr %0, ptr %4, align 8
  store ptr %1, ptr %5, align 8
  %6 = load ptr, ptr %4, align 8
  %7 = getelementptr inbounds %class.StackRefCollector, ptr %6, i32 0, i32 1
  %8 = load ptr, ptr %7, align 8
  %9 = getelementptr inbounds %class.StackRefCollector, ptr %6, i32 0, i32 4
  %10 = load i64, ptr %9, align 8
  %11 = getelementptr inbounds %class.StackRefCollector, ptr %6, i32 0, i32 5
  %12 = load i64, ptr %11, align 8
  %13 = getelementptr inbounds %class.StackRefCollector, ptr %6, i32 0, i32 7
  %14 = load i32, ptr %13, align 4
  %15 = load ptr, ptr %5, align 8
  call void @_ZN20JNILocalRootsClosure11set_contextElliP10_jmethodID(ptr noundef nonnull align 8 dereferenceable(41) %8, i64 noundef %10, i64 noundef %12, i32 noundef %14, ptr noundef %15)
  %16 = getelementptr inbounds %class.StackRefCollector, ptr %6, i32 0, i32 6
  %17 = load i8, ptr %16, align 8
  %18 = trunc i8 %17 to i1
  br i1 %18, label %19, label %30

19:                                               ; preds = %2
  %20 = getelementptr inbounds %class.StackRefCollector, ptr %6, i32 0, i32 2
  %21 = load ptr, ptr %20, align 8
  %22 = call noundef ptr @_ZNK10JavaThread14active_handlesEv(ptr noundef nonnull align 8 dereferenceable(1800) %21)
  %23 = getelementptr inbounds %class.StackRefCollector, ptr %6, i32 0, i32 1
  %24 = load ptr, ptr %23, align 8
  call void @_ZN14JNIHandleBlock7oops_doEP10OopClosure(ptr noundef nonnull align 8 dereferenceable(296) %22, ptr noundef %24)
  %25 = getelementptr inbounds %class.StackRefCollector, ptr %6, i32 0, i32 1
  %26 = load ptr, ptr %25, align 8
  %27 = call noundef zeroext i1 @_ZN20JNILocalRootsClosure7stoppedEv(ptr noundef nonnull align 8 dereferenceable(41) %26)
  br i1 %27, label %28, label %29

28:                                               ; preds = %19
  store i1 false, ptr %3, align 1
  br label %48

29:                                               ; preds = %19
  br label %47

30:                                               ; preds = %2
  %31 = getelementptr inbounds %class.StackRefCollector, ptr %6, i32 0, i32 8
  %32 = load ptr, ptr %31, align 8
  %33 = icmp ne ptr %32, null
  br i1 %33, label %34, label %46

34:                                               ; preds = %30
  %35 = getelementptr inbounds %class.StackRefCollector, ptr %6, i32 0, i32 8
  %36 = load ptr, ptr %35, align 8
  %37 = call noundef ptr @_ZNK5frame24entry_frame_call_wrapperEv(ptr noundef nonnull align 8 dereferenceable(56) %36)
  %38 = call noundef ptr @_ZNK15JavaCallWrapper7handlesEv(ptr noundef nonnull align 8 dereferenceable(64) %37)
  %39 = getelementptr inbounds %class.StackRefCollector, ptr %6, i32 0, i32 1
  %40 = load ptr, ptr %39, align 8
  call void @_ZN14JNIHandleBlock7oops_doEP10OopClosure(ptr noundef nonnull align 8 dereferenceable(296) %38, ptr noundef %40)
  %41 = getelementptr inbounds %class.StackRefCollector, ptr %6, i32 0, i32 1
  %42 = load ptr, ptr %41, align 8
  %43 = call noundef zeroext i1 @_ZN20JNILocalRootsClosure7stoppedEv(ptr noundef nonnull align 8 dereferenceable(41) %42)
  br i1 %43, label %44, label %45

44:                                               ; preds = %34
  store i1 false, ptr %3, align 1
  br label %48

45:                                               ; preds = %34
  br label %46

46:                                               ; preds = %45, %30
  br label %47

47:                                               ; preds = %46, %29
  store i1 true, ptr %3, align 1
  br label %48

48:                                               ; preds = %47, %44, %28
  %49 = load i1, ptr %3, align 1
  ret i1 %49
}