; Function Attrs: mustprogress nounwind uwtable
define hidden noundef zeroext i1 @_ZN17StackRefCollector24report_native_stack_refsEP10_jmethodID(ptr nocapture noundef nonnull readonly align 8 dereferenceable(64) %0, ptr noundef %1) local_unnamed_addr #0 align 2 {
  %3 = getelementptr inbounds i8, ptr %0, i64 8
  %4 = load ptr, ptr %3, align 8
  %5 = getelementptr inbounds i8, ptr %0, i64 32
  %6 = getelementptr inbounds i8, ptr %0, i64 52
  %7 = load i32, ptr %6, align 4
  %8 = getelementptr inbounds i8, ptr %4, i64 8
  %9 = load <2 x i64>, ptr %5, align 8
  store <2 x i64> %9, ptr %8, align 8
  %10 = getelementptr inbounds i8, ptr %4, i64 24
  store i32 %7, ptr %10, align 8
  %11 = getelementptr inbounds i8, ptr %4, i64 32
  store ptr %1, ptr %11, align 8
  %12 = getelementptr inbounds i8, ptr %4, i64 40
  store i8 1, ptr %12, align 8
  %13 = getelementptr inbounds i8, ptr %0, i64 48
  %14 = load i8, ptr %13, align 8
  %15 = trunc i8 %14 to i1
  br i1 %15, label %16, label %26

16:                                               ; preds = %2
  %17 = getelementptr inbounds i8, ptr %0, i64 16
  %18 = load ptr, ptr %17, align 8
  %19 = getelementptr inbounds i8, ptr %18, i64 1072
  %20 = load ptr, ptr %19, align 8
  %21 = load ptr, ptr %3, align 8
  tail call void @_ZN14JNIHandleBlock7oops_doEP10OopClosure(ptr noundef nonnull align 8 dereferenceable(296) %20, ptr noundef %21) #14
  %22 = load ptr, ptr %3, align 8
  %23 = getelementptr inbounds i8, ptr %22, i64 40
  %24 = load i8, ptr %23, align 8
  %25 = trunc i8 %24 to i1
  br i1 %25, label %41, label %42

26:                                               ; preds = %2
  %27 = getelementptr inbounds i8, ptr %0, i64 56
  %28 = load ptr, ptr %27, align 8
  %.not = icmp eq ptr %28, null
  br i1 %.not, label %41, label %29

29:                                               ; preds = %26
  %30 = getelementptr inbounds i8, ptr %28, i64 40
  %31 = load ptr, ptr %30, align 8
  %32 = getelementptr inbounds i8, ptr %31, i64 -48
  %33 = load ptr, ptr %32, align 8
  %34 = getelementptr inbounds i8, ptr %33, i64 8
  %35 = load ptr, ptr %34, align 8
  %36 = load ptr, ptr %3, align 8
  tail call void @_ZN14JNIHandleBlock7oops_doEP10OopClosure(ptr noundef nonnull align 8 dereferenceable(296) %35, ptr noundef %36) #14
  %37 = load ptr, ptr %3, align 8
  %38 = getelementptr inbounds i8, ptr %37, i64 40
  %39 = load i8, ptr %38, align 8
  %40 = trunc i8 %39 to i1
  br i1 %40, label %41, label %42

41:                                               ; preds = %26, %29, %16
  br label %42

42:                                               ; preds = %29, %16, %41
  %.0 = phi i1 [ true, %41 ], [ false, %16 ], [ false, %29 ]
  ret i1 %.0
}